target datalayout = "e-m:e-p270:32:32-p271:32:32-p272:64:64-i64:64-i128:128-f80:128-n8:16:32:64-S128"
target triple = "x86_64-pc-linux-gnu"

%struct._uat_key_record_t = type { ptr, i8, ptr }

@.str.71 = private unnamed_addr constant [19 x i8] c"Key can't be blank\00", align 1
@.str.72 = private unnamed_addr constant [70 x i8] c"Expecting %d hexadecimal bytes or\0Aa %d character double-quoted string\00", align 1

; Function Attrs: nounwind uwtable
define internal zeroext i1 @uat_key_record_update_cb(ptr noundef %0, ptr noundef %1) #0 {
  %3 = alloca i1, align 1
  %4 = alloca ptr, align 8
  %5 = alloca ptr, align 8
  %6 = alloca ptr, align 8
  %7 = alloca [16 x i8], align 16
  store ptr %0, ptr %4, align 8
  store ptr %1, ptr %5, align 8
  %8 = load ptr, ptr %4, align 8
  store ptr %8, ptr %6, align 8
  %9 = load ptr, ptr %6, align 8
  %10 = getelementptr inbounds %struct._uat_key_record_t, ptr %9, i32 0, i32 0
  %11 = load ptr, ptr %10, align 8
  %12 = icmp eq ptr %11, null
  br i1 %12, label %13, label %16

13:                                               ; preds = %2
  %14 = call noalias ptr @g_strdup(ptr noundef @.str.71)
  %15 = load ptr, ptr %5, align 8
  store ptr %14, ptr %15, align 8
  store i1 false, ptr %3, align 1
  br label %50

16:                                               ; preds = %2
  %17 = load ptr, ptr %6, align 8
  %18 = getelementptr inbounds %struct._uat_key_record_t, ptr %17, i32 0, i32 0
  %19 = load ptr, ptr %18, align 8
  %20 = call ptr @g_strchug(ptr noundef %19)
  %21 = call ptr @g_strchomp(ptr noundef %20)
  %22 = load ptr, ptr %6, align 8
  %23 = getelementptr inbounds %struct._uat_key_record_t, ptr %22, i32 0, i32 0
  %24 = load ptr, ptr %23, align 8
  %25 = getelementptr i8, ptr %24, i64 0
  %26 = load i8, ptr %25, align 1
  %27 = sext i8 %26 to i32
  %28 = icmp ne i32 %27, 0
  br i1 %28, label %29, label %45

29:                                               ; preds = %16
  %30 = load ptr, ptr %5, align 8
  store ptr null, ptr %30, align 8
  %31 = load ptr, ptr %6, align 8
  %32 = getelementptr inbounds %struct._uat_key_record_t, ptr %31, i32 0, i32 0
  %33 = load ptr, ptr %32, align 8
  %34 = getelementptr inbounds [16 x i8], ptr %7, i64 0, i64 0
  %35 = load ptr, ptr %6, align 8
  %36 = getelementptr inbounds %struct._uat_key_record_t, ptr %35, i32 0, i32 1
  %37 = load i8, ptr %36, align 8
  %38 = zext i8 %37 to i32
  %39 = call i32 @zbee_security_parse_key(ptr noundef %33, ptr noundef %34, i32 noundef %38)
  %40 = icmp ne i32 %39, 0
  br i1 %40, label %44, label %41

41:                                               ; preds = %29
  %42 = call noalias ptr (ptr, ptr, ...) @wmem_strdup_printf(ptr noundef null, ptr noundef @.str.72, i32 noundef 16, i32 noundef 16)
  %43 = load ptr, ptr %5, align 8
  store ptr %42, ptr %43, align 8
  store i1 false, ptr %3, align 1
  br label %50

44:                                               ; preds = %29
  br label %48

45:                                               ; preds = %16
  %46 = call noalias ptr @g_strdup(ptr noundef @.str.71)
  %47 = load ptr, ptr %5, align 8
  store ptr %46, ptr %47, align 8
  store i1 false, ptr %3, align 1
  br label %50

48:                                               ; preds = %44
  br label %49

49:                                               ; preds = %48
  store i1 true, ptr %3, align 1
  br label %50

50:                                               ; preds = %49, %45, %41, %13
  %51 = load i1, ptr %3, align 1
  ret i1 %51
}