; Function Attrs: nounwind uwtable
define internal noundef zeroext i1 @uat_key_record_update_cb(ptr noundef readonly captures(none) %0, ptr noundef writeonly captures(none) initializes((0, 8)) %1) #0 {
  %3 = alloca [16 x i8], align 16
  %4 = load ptr, ptr %0, align 8
  %5 = icmp eq ptr %4, null
  br i1 %5, label %6, label %8

6:                                                ; preds = %2
  %7 = tail call noalias ptr @g_strdup(ptr noundef nonnull @.str.71) #11
  br label %.sink.split

8:                                                ; preds = %2
  %9 = tail call ptr @g_strchug(ptr noundef nonnull %4) #11
  %10 = tail call ptr @g_strchomp(ptr noundef %9) #11
  %11 = load ptr, ptr %0, align 8
  %12 = load i8, ptr %11, align 1
  %.not = icmp eq i8 %12, 0
  br i1 %.not, label %21, label %13

13:                                               ; preds = %8
  store ptr null, ptr %1, align 8
  %14 = load ptr, ptr %0, align 8
  %15 = getelementptr inbounds nuw i8, ptr %0, i64 8
  %16 = load i8, ptr %15, align 8
  %17 = zext i8 %16 to i32
  %18 = call fastcc i32 @zbee_security_parse_key(ptr noundef %14, ptr noundef %3, i32 noundef %17)
  %.not12 = icmp eq i32 %18, 0
  br i1 %.not12, label %19, label %23

19:                                               ; preds = %13
  %20 = tail call noalias ptr (ptr, ptr, ...) @wmem_strdup_printf(ptr noundef null, ptr noundef nonnull @.str.72, i32 noundef 16, i32 noundef 16) #11
  br label %.sink.split

21:                                               ; preds = %8
  %22 = tail call noalias ptr @g_strdup(ptr noundef nonnull @.str.71) #11
  br label %.sink.split

.sink.split:                                      ; preds = %6, %19, %21
  %.sink = phi ptr [ %22, %21 ], [ %20, %19 ], [ %7, %6 ]
  store ptr %.sink, ptr %1, align 8
  br label %23

23:                                               ; preds = %.sink.split, %13
  %.0 = phi i1 [ true, %13 ], [ false, %.sink.split ]
  ret i1 %.0
}